target datalayout = "e-m:e-p270:32:32-p271:32:32-p272:64:64-i64:64-i128:128-f80:128-n8:16:32:64-S128"
target triple = "x86_64-pc-linux-gnu"

%"class.llvm::InstCombiner" = type <{ ptr, ptr, i64, ptr, ptr, i8, [7 x i8], ptr, ptr, ptr, ptr, ptr, %"struct.llvm::SimplifyQuery", ptr, ptr, ptr, ptr, %"class.llvm::DomConditionCache", ptr, i8, [7 x i8], %"class.llvm::SmallDenseSet", %"class.llvm::SmallDenseMap.25", %"class.llvm::SmallDenseSet.28", i8, [7 x i8] }>
%"struct.llvm::SimplifyQuery" = type <{ ptr, ptr, ptr, ptr, ptr, ptr, ptr, %"struct.llvm::InstrInfoQuery", i8, [6 x i8] }>
%"struct.llvm::InstrInfoQuery" = type { i8 }
%"class.llvm::DomConditionCache" = type { %"class.llvm::DenseMap" }
%"class.llvm::DenseMap" = type <{ ptr, i32, i32, i32, [4 x i8] }>
%"class.llvm::SmallDenseSet" = type { %"class.llvm::detail::DenseSetImpl" }
%"class.llvm::detail::DenseSetImpl" = type { %"class.llvm::SmallDenseMap" }
%"class.llvm::SmallDenseMap" = type { i32, i32, %"struct.llvm::AlignedCharArrayUnion" }
%"struct.llvm::AlignedCharArrayUnion" = type { [128 x i8] }
%"class.llvm::SmallDenseMap.25" = type { i32, i32, %"struct.llvm::AlignedCharArrayUnion.27" }
%"struct.llvm::AlignedCharArrayUnion.27" = type { [576 x i8] }
%"class.llvm::SmallDenseSet.28" = type { %"class.llvm::detail::DenseSetImpl.29" }
%"class.llvm::detail::DenseSetImpl.29" = type { %"class.llvm::SmallDenseMap.30" }
%"class.llvm::SmallDenseMap.30" = type { i32, i32, %"struct.llvm::AlignedCharArrayUnion.32" }
%"struct.llvm::AlignedCharArrayUnion.32" = type { [128 x i8] }
%class.anon.292 = type { ptr, ptr }

; Function Attrs: mustprogress nounwind uwtable
define linkonce_odr hidden void @_ZNK4llvm13SimplifyQuery18getWithInstructionEPKNS_11InstructionE(ptr dead_on_unwind noalias writable sret(%"struct.llvm::SimplifyQuery") align 8 %0, ptr noundef nonnull align 8 dereferenceable(58) %1, ptr noundef %2) #1 comdat align 2 {
  %4 = alloca ptr, align 8
  %5 = alloca ptr, align 8
  store ptr %1, ptr %4, align 8
  store ptr %2, ptr %5, align 8
  %6 = load ptr, ptr %4, align 8
  call void @llvm.memcpy.p0.p0.i64(ptr align 8 %0, ptr align 8 %6, i64 64, i1 false)
  %7 = load ptr, ptr %5, align 8
  %8 = getelementptr inbounds nuw %"struct.llvm::SimplifyQuery", ptr %0, i32 0, i32 4
  store ptr %7, ptr %8, align 8
  ret void
}

; Function Attrs: mustprogress nounwind uwtable
define internal noundef zeroext i1 @"_ZZN4llvm16InstCombinerImpl22visitGetElementPtrInstERNS_17GetElementPtrInstEENK3$_1clEbPNS_5ValueES5_"(ptr noundef nonnull align 8 dereferenceable(16) %0, i1 noundef zeroext %1, ptr noundef %2, ptr noundef %3) #1 align 2 {
  %5 = alloca ptr, align 8
  %6 = alloca i8, align 1
  %7 = alloca ptr, align 8
  %8 = alloca ptr, align 8
  %9 = alloca %"struct.llvm::SimplifyQuery", align 8
  store ptr %0, ptr %5, align 8
  %10 = zext i1 %1 to i8
  store i8 %10, ptr %6, align 1
  store ptr %2, ptr %7, align 8
  store ptr %3, ptr %8, align 8
  %11 = load ptr, ptr %5, align 8
  %12 = getelementptr inbounds nuw %class.anon.292, ptr %11, i32 0, i32 0
  %13 = load ptr, ptr %12, align 8
  %14 = getelementptr inbounds nuw %"class.llvm::InstCombiner", ptr %13, i32 0, i32 12
  %15 = getelementptr inbounds nuw %class.anon.292, ptr %11, i32 0, i32 1
  %16 = load ptr, ptr %15, align 8
  call void @_ZNK4llvm13SimplifyQuery18getWithInstructionEPKNS_11InstructionE(ptr dead_on_unwind writable sret(%"struct.llvm::SimplifyQuery") align 8 %9, ptr noundef nonnull align 8 dereferenceable(58) %14, ptr noundef %16)
  %17 = getelementptr inbounds nuw %class.anon.292, ptr %11, i32 0, i32 1
  %18 = load ptr, ptr %17, align 8
  %19 = call noundef zeroext i1 @_ZNK4llvm17GetElementPtrInst10isInBoundsEv(ptr noundef nonnull align 8 dereferenceable(88) %18)
  br i1 %19, label %20, label %29

20:                                               ; preds = %4
  %21 = load i8, ptr %6, align 1
  %22 = trunc i8 %21 to i1
  br i1 %22, label %23, label %29

23:                                               ; preds = %20
  %24 = load ptr, ptr %7, align 8
  %25 = call noundef zeroext i1 @_ZN4llvm18isKnownNonNegativeEPKNS_5ValueERKNS_13SimplifyQueryEj(ptr noundef %24, ptr noundef nonnull align 8 dereferenceable(58) %9, i32 noundef 0)
  br i1 %25, label %26, label %29

26:                                               ; preds = %23
  %27 = load ptr, ptr %8, align 8
  %28 = call noundef zeroext i1 @_ZN4llvm18isKnownNonNegativeEPKNS_5ValueERKNS_13SimplifyQueryEj(ptr noundef %27, ptr noundef nonnull align 8 dereferenceable(58) %9, i32 noundef 0)
  br label %29

29:                                               ; preds = %26, %23, %20, %4
  %30 = phi i1 [ false, %23 ], [ false, %20 ], [ false, %4 ], [ %28, %26 ]
  ret i1 %30
}