; Function Attrs: mustprogress nounwind uwtable
define internal fastcc noundef zeroext i1 @"_ZZN4llvm16InstCombinerImpl22visitGetElementPtrInstERNS_17GetElementPtrInstEENK3$_1clEbPNS_5ValueES5_"(ptr readonly captures(none) %.0.val, ptr nonnull %.8.val, i1 noundef zeroext %0, ptr noundef %1, ptr noundef %2) unnamed_addr #0 align 2 {
  %4 = alloca %"struct.llvm::SimplifyQuery", align 8
  %5 = getelementptr inbounds nuw i8, ptr %.0.val, i64 88
  call void @llvm.memcpy.p0.p0.i64(ptr noundef nonnull align 8 dereferenceable(64) %4, ptr noundef nonnull align 8 dereferenceable(64) %5, i64 64, i1 false)
  %6 = getelementptr inbounds nuw i8, ptr %4, i64 32
  store ptr %.8.val, ptr %6, align 8, !alias.scope !147
  %7 = tail call noundef zeroext i1 @_ZNK4llvm17GetElementPtrInst10isInBoundsEv(ptr noundef nonnull align 8 dereferenceable(88) %.8.val) #27
  %brmerge.demorgan = and i1 %0, %7
  br i1 %brmerge.demorgan, label %8, label %12

8:                                                ; preds = %3
  %9 = call noundef zeroext i1 @_ZN4llvm18isKnownNonNegativeEPKNS_5ValueERKNS_13SimplifyQueryEj(ptr noundef %1, ptr noundef nonnull align 8 dereferenceable(58) %4, i32 noundef 0) #27
  br i1 %9, label %10, label %12

10:                                               ; preds = %8
  %11 = call noundef zeroext i1 @_ZN4llvm18isKnownNonNegativeEPKNS_5ValueERKNS_13SimplifyQueryEj(ptr noundef %2, ptr noundef nonnull align 8 dereferenceable(58) %4, i32 noundef 0) #27
  br label %12

12:                                               ; preds = %3, %10, %8
  %13 = phi i1 [ false, %8 ], [ false, %3 ], [ %11, %10 ]
  ret i1 %13
}